; Function Attrs: nounwind uwtable
define ptr @Java_sun_security_smartcardio_PCSC_SCardListReaders(ptr noundef %0, ptr nocapture noundef readnone %1, i64 noundef %2) local_unnamed_addr #0 {
  %4 = alloca i64, align 8
  store i64 0, ptr %4, align 8
  %5 = load ptr, ptr @scardListReaders, align 8
  %6 = call i64 %5(i64 noundef %2, ptr noundef null, ptr noundef null, ptr noundef nonnull %4) #7
  %7 = icmp eq i64 %6, 0
  br i1 %7, label %handleRV.exit, label %8

8:                                                ; preds = %3
  %9 = load ptr, ptr %0, align 8
  %10 = getelementptr inbounds i8, ptr %9, i64 48
  %11 = load ptr, ptr %10, align 8
  %12 = call ptr %11(ptr noundef nonnull %0, ptr noundef nonnull @.str) #7
  %13 = icmp eq ptr %12, null
  br i1 %13, label %throwOutOfMemoryError.exit, label %14

14:                                               ; preds = %8
  %15 = load ptr, ptr %0, align 8
  %16 = getelementptr inbounds i8, ptr %15, i64 264
  %17 = load ptr, ptr %16, align 8
  %18 = call ptr %17(ptr noundef nonnull %0, ptr noundef nonnull %12, ptr noundef nonnull @.str.1, ptr noundef nonnull @.str.2) #7
  %19 = icmp eq ptr %18, null
  br i1 %19, label %throwOutOfMemoryError.exit, label %20

20:                                               ; preds = %14
  %21 = load ptr, ptr %0, align 8
  %22 = getelementptr inbounds i8, ptr %21, i64 224
  %23 = load ptr, ptr %22, align 8
  %24 = trunc i64 %6 to i32
  %25 = call ptr (ptr, ptr, ptr, ...) %23(ptr noundef nonnull %0, ptr noundef nonnull %12, ptr noundef nonnull %18, i32 noundef %24) #7
  %.not.i.i = icmp eq ptr %25, null
  br i1 %.not.i.i, label %throwOutOfMemoryError.exit, label %26

26:                                               ; preds = %20
  %27 = load ptr, ptr %0, align 8
  %28 = getelementptr inbounds i8, ptr %27, i64 104
  %29 = load ptr, ptr %28, align 8
  %30 = call i32 %29(ptr noundef nonnull %0, ptr noundef nonnull %25) #7
  br label %throwOutOfMemoryError.exit

handleRV.exit:                                    ; preds = %3
  %31 = load i64, ptr %4, align 8
  %.not17 = icmp eq i64 %31, 0
  br i1 %.not17, label %throwOutOfMemoryError.exit, label %32

32:                                               ; preds = %handleRV.exit
  %33 = call noalias ptr @malloc(i64 noundef %31) #9
  %34 = icmp eq ptr %33, null
  br i1 %34, label %35, label %45

35:                                               ; preds = %32
  %36 = load ptr, ptr %0, align 8
  %37 = getelementptr inbounds i8, ptr %36, i64 48
  %38 = load ptr, ptr %37, align 8
  %39 = call ptr %38(ptr noundef nonnull %0, ptr noundef nonnull @.str.4) #7
  %.not.i = icmp eq ptr %39, null
  br i1 %.not.i, label %throwOutOfMemoryError.exit, label %40

40:                                               ; preds = %35
  %41 = load ptr, ptr %0, align 8
  %42 = getelementptr inbounds i8, ptr %41, i64 112
  %43 = load ptr, ptr %42, align 8
  %44 = call i32 %43(ptr noundef nonnull %0, ptr noundef nonnull %39, ptr noundef null) #7
  br label %throwOutOfMemoryError.exit

45:                                               ; preds = %32
  %46 = load ptr, ptr @scardListReaders, align 8
  %47 = call i64 %46(i64 noundef %2, ptr noundef null, ptr noundef nonnull %33, ptr noundef nonnull %4) #7
  %48 = icmp eq i64 %47, 0
  br i1 %48, label %handleRV.exit21, label %49

49:                                               ; preds = %45
  %50 = load ptr, ptr %0, align 8
  %51 = getelementptr inbounds i8, ptr %50, i64 48
  %52 = load ptr, ptr %51, align 8
  %53 = call ptr %52(ptr noundef nonnull %0, ptr noundef nonnull @.str) #7
  %54 = icmp eq ptr %53, null
  br i1 %54, label %72, label %55

55:                                               ; preds = %49
  %56 = load ptr, ptr %0, align 8
  %57 = getelementptr inbounds i8, ptr %56, i64 264
  %58 = load ptr, ptr %57, align 8
  %59 = call ptr %58(ptr noundef nonnull %0, ptr noundef nonnull %53, ptr noundef nonnull @.str.1, ptr noundef nonnull @.str.2) #7
  %60 = icmp eq ptr %59, null
  br i1 %60, label %72, label %61

61:                                               ; preds = %55
  %62 = load ptr, ptr %0, align 8
  %63 = getelementptr inbounds i8, ptr %62, i64 224
  %64 = load ptr, ptr %63, align 8
  %65 = trunc i64 %47 to i32
  %66 = call ptr (ptr, ptr, ptr, ...) %64(ptr noundef nonnull %0, ptr noundef nonnull %53, ptr noundef nonnull %59, i32 noundef %65) #7
  %.not.i.i19 = icmp eq ptr %66, null
  br i1 %.not.i.i19, label %72, label %67

67:                                               ; preds = %61
  %68 = load ptr, ptr %0, align 8
  %69 = getelementptr inbounds i8, ptr %68, i64 104
  %70 = load ptr, ptr %69, align 8
  %71 = call i32 %70(ptr noundef nonnull %0, ptr noundef nonnull %66) #7
  br label %72

72:                                               ; preds = %49, %55, %61, %67
  call void @free(ptr noundef nonnull %33) #7
  br label %throwOutOfMemoryError.exit

handleRV.exit21:                                  ; preds = %45
  %73 = call ptr @pcsc_multi2jstring(ptr noundef %0, ptr noundef nonnull %33)
  call void @free(ptr noundef nonnull %33) #7
  br label %throwOutOfMemoryError.exit

throwOutOfMemoryError.exit:                       ; preds = %26, %20, %14, %8, %40, %35, %handleRV.exit, %handleRV.exit21, %72
  %.0 = phi ptr [ null, %72 ], [ %73, %handleRV.exit21 ], [ null, %handleRV.exit ], [ null, %35 ], [ null, %40 ], [ null, %8 ], [ null, %14 ], [ null, %20 ], [ null, %26 ]
  ret ptr %.0
}